target datalayout = "e-m:e-p270:32:32-p271:32:32-p272:64:64-i64:64-i128:128-f80:128-n8:16:32:64-S128"
target triple = "x86_64-pc-linux-gnu"

@_ZN10ODDLParser7GrammarL18PrimitiveTypeTokenE = internal global [14 x ptr] [ptr @.str.10, ptr @.str.11, ptr @.str.12, ptr @.str.13, ptr @.str.14, ptr @.str.15, ptr @.str.16, ptr @.str.17, ptr @.str.18, ptr @.str.19, ptr @.str.20, ptr @.str.21, ptr @.str.22, ptr @.str.23], align 16
@_ZN10ODDLParser7GrammarL14OpenArrayTokenE = internal global ptr @.str.39, align 8
@_ZN10ODDLParser7GrammarL15CloseArrayTokenE = internal global ptr @.str.40, align 8

; Function Attrs: inlinehint mustprogress nounwind uwtable
define linkonce_odr hidden noundef zeroext i1 @_ZN10ODDLParser9isNewLineIcEEbT_(i8 noundef signext %0) #12 comdat {
  %2 = alloca i8, align 1
  store i8 %0, ptr %2, align 1
  %3 = load i8, ptr %2, align 1
  %4 = sext i8 %3 to i32
  %5 = icmp eq i32 10, %4
  br i1 %5, label %10, label %6

6:                                                ; preds = %1
  %7 = load i8, ptr %2, align 1
  %8 = sext i8 %7 to i32
  %9 = icmp eq i32 13, %8
  br label %10

10:                                               ; preds = %6, %1
  %11 = phi i1 [ true, %1 ], [ %9, %6 ]
  ret i1 %11
}

; Function Attrs: inlinehint mustprogress nounwind uwtable
define linkonce_odr hidden noundef zeroext i1 @_ZN10ODDLParser7isSpaceIcEEbT_(i8 noundef signext %0) #12 comdat {
  %2 = alloca i8, align 1
  store i8 %0, ptr %2, align 1
  %3 = load i8, ptr %2, align 1
  %4 = sext i8 %3 to i32
  %5 = icmp eq i32 32, %4
  br i1 %5, label %10, label %6

6:                                                ; preds = %1
  %7 = load i8, ptr %2, align 1
  %8 = sext i8 %7 to i32
  %9 = icmp eq i32 9, %8
  br label %10

10:                                               ; preds = %6, %1
  %11 = phi i1 [ true, %1 ], [ %9, %6 ]
  ret i1 %11
}

; Function Attrs: inlinehint mustprogress nounwind willreturn memory(read) uwtable
define available_externally i32 @atoi(ptr noundef nonnull %0) #15 {
  %2 = alloca ptr, align 8
  store ptr %0, ptr %2, align 8
  %3 = load ptr, ptr %2, align 8
  %4 = call i64 @strtol(ptr noundef %3, ptr noundef null, i32 noundef 10) #3
  %5 = trunc i64 %4 to i32
  ret i32 %5
}

; Function Attrs: inlinehint mustprogress uwtable
define linkonce_odr hidden noundef ptr @_ZN10ODDLParser16lookForNextTokenIcEEPT_S2_S2_(ptr noundef %0, ptr noundef %1) #10 comdat {
  %3 = alloca ptr, align 8
  %4 = alloca ptr, align 8
  store ptr %0, ptr %3, align 8
  store ptr %1, ptr %4, align 8
  br label %5

5:                                                ; preds = %26, %2
  %6 = load ptr, ptr %3, align 8
  %7 = load ptr, ptr %4, align 8
  %8 = icmp ne ptr %6, %7
  br i1 %8, label %9, label %24

9:                                                ; preds = %5
  %10 = load ptr, ptr %3, align 8
  %11 = load i8, ptr %10, align 1
  %12 = call noundef zeroext i1 @_ZN10ODDLParser7isSpaceIcEEbT_(i8 noundef signext %11)
  br i1 %12, label %22, label %13

13:                                               ; preds = %9
  %14 = load ptr, ptr %3, align 8
  %15 = load i8, ptr %14, align 1
  %16 = call noundef zeroext i1 @_ZN10ODDLParser9isNewLineIcEEbT_(i8 noundef signext %15)
  br i1 %16, label %22, label %17

17:                                               ; preds = %13
  %18 = load ptr, ptr %3, align 8
  %19 = load i8, ptr %18, align 1
  %20 = sext i8 %19 to i32
  %21 = icmp eq i32 44, %20
  br label %22

22:                                               ; preds = %17, %13, %9
  %23 = phi i1 [ true, %13 ], [ true, %9 ], [ %21, %17 ]
  br label %24

24:                                               ; preds = %22, %5
  %25 = phi i1 [ false, %5 ], [ %23, %22 ]
  br i1 %25, label %26, label %29

26:                                               ; preds = %24
  %27 = load ptr, ptr %3, align 8
  %28 = getelementptr inbounds nuw i8, ptr %27, i32 1
  store ptr %28, ptr %3, align 8
  br label %5, !llvm.loop !13

29:                                               ; preds = %24
  %30 = load ptr, ptr %3, align 8
  ret ptr %30
}

; Function Attrs: mustprogress uwtable
define hidden noundef ptr @_ZN10ODDLParser13OpenDDLParser22parsePrimitiveDataTypeEPcS1_RNS_5Value9ValueTypeERm(ptr noundef %0, ptr noundef %1, ptr noundef nonnull align 4 dereferenceable(4) %2, ptr noundef nonnull align 8 dereferenceable(8) %3) #6 align 2 {
  %5 = alloca ptr, align 8
  %6 = alloca ptr, align 8
  %7 = alloca ptr, align 8
  %8 = alloca ptr, align 8
  %9 = alloca ptr, align 8
  %10 = alloca i64, align 8
  %11 = alloca i64, align 8
  %12 = alloca i32, align 4
  %13 = alloca i8, align 1
  %14 = alloca ptr, align 8
  store ptr %0, ptr %6, align 8
  store ptr %1, ptr %7, align 8
  store ptr %2, ptr %8, align 8
  store ptr %3, ptr %9, align 8
  %15 = load ptr, ptr %8, align 8
  store i32 -1, ptr %15, align 4
  %16 = load ptr, ptr %9, align 8
  store i64 0, ptr %16, align 8
  %17 = load ptr, ptr %6, align 8
  %18 = icmp eq ptr null, %17
  br i1 %18, label %23, label %19

19:                                               ; preds = %4
  %20 = load ptr, ptr %6, align 8
  %21 = load ptr, ptr %7, align 8
  %22 = icmp eq ptr %20, %21
  br i1 %22, label %23, label %25

23:                                               ; preds = %19, %4
  %24 = load ptr, ptr %6, align 8
  store ptr %24, ptr %5, align 8
  br label %111

25:                                               ; preds = %19
  call void @llvm.lifetime.start.p0(i64 8, ptr %10) #3
  store i64 0, ptr %10, align 8
  call void @llvm.lifetime.start.p0(i64 8, ptr %11) #3
  store i64 0, ptr %11, align 8
  br label %26

26:                                               ; preds = %47, %25
  %27 = load i64, ptr %11, align 8
  %28 = icmp ult i64 %27, 14
  br i1 %28, label %30, label %29

29:                                               ; preds = %26
  store i32 2, ptr %12, align 4
  br label %50

30:                                               ; preds = %26
  %31 = load i64, ptr %11, align 8
  %32 = getelementptr inbounds nuw [14 x ptr], ptr @_ZN10ODDLParser7GrammarL18PrimitiveTypeTokenE, i64 0, i64 %31
  %33 = load ptr, ptr %32, align 8
  %34 = call i64 @strlen(ptr noundef %33) #23
  store i64 %34, ptr %10, align 8
  %35 = load ptr, ptr %6, align 8
  %36 = load i64, ptr %11, align 8
  %37 = getelementptr inbounds nuw [14 x ptr], ptr @_ZN10ODDLParser7GrammarL18PrimitiveTypeTokenE, i64 0, i64 %36
  %38 = load ptr, ptr %37, align 8
  %39 = load i64, ptr %10, align 8
  %40 = call i32 @strncmp(ptr noundef %35, ptr noundef %38, i64 noundef %39) #23
  %41 = icmp eq i32 0, %40
  br i1 %41, label %42, label %46

42:                                               ; preds = %30
  %43 = load i64, ptr %11, align 8
  %44 = trunc i64 %43 to i32
  %45 = load ptr, ptr %8, align 8
  store i32 %44, ptr %45, align 4
  store i32 2, ptr %12, align 4
  br label %50

46:                                               ; preds = %30
  br label %47

47:                                               ; preds = %46
  %48 = load i64, ptr %11, align 8
  %49 = add i64 %48, 1
  store i64 %49, ptr %11, align 8
  br label %26, !llvm.loop !14

50:                                               ; preds = %42, %29
  call void @llvm.lifetime.end.p0(i64 8, ptr %11) #3
  br label %51

51:                                               ; preds = %50
  %52 = load ptr, ptr %8, align 8
  %53 = load i32, ptr %52, align 4
  %54 = icmp eq i32 -1, %53
  br i1 %54, label %55, label %60

55:                                               ; preds = %51
  %56 = load ptr, ptr %6, align 8
  %57 = load ptr, ptr %7, align 8
  %58 = call noundef ptr @_ZN10ODDLParser16lookForNextTokenIcEEPT_S2_S2_(ptr noundef %56, ptr noundef %57)
  store ptr %58, ptr %6, align 8
  %59 = load ptr, ptr %6, align 8
  store ptr %59, ptr %5, align 8
  store i32 1, ptr %12, align 4
  br label %110

60:                                               ; preds = %51
  %61 = load i64, ptr %10, align 8
  %62 = load ptr, ptr %6, align 8
  %63 = getelementptr inbounds nuw i8, ptr %62, i64 %61
  store ptr %63, ptr %6, align 8
  br label %64

64:                                               ; preds = %60
  call void @llvm.lifetime.start.p0(i64 1, ptr %13) #3
  store i8 1, ptr %13, align 1
  %65 = load ptr, ptr %6, align 8
  %66 = load i8, ptr %65, align 1
  %67 = sext i8 %66 to i32
  %68 = load ptr, ptr @_ZN10ODDLParser7GrammarL14OpenArrayTokenE, align 8
  %69 = getelementptr inbounds i8, ptr %68, i64 0
  %70 = load i8, ptr %69, align 1
  %71 = sext i8 %70 to i32
  %72 = icmp eq i32 %67, %71
  br i1 %72, label %73, label %101

73:                                               ; preds = %64
  store i8 0, ptr %13, align 1
  %74 = load ptr, ptr %6, align 8
  %75 = getelementptr inbounds nuw i8, ptr %74, i32 1
  store ptr %75, ptr %6, align 8
  call void @llvm.lifetime.start.p0(i64 8, ptr %14) #3
  %76 = load ptr, ptr %6, align 8
  store ptr %76, ptr %14, align 8
  br label %77

77:                                               ; preds = %99, %73
  %78 = load ptr, ptr %6, align 8
  %79 = load ptr, ptr %7, align 8
  %80 = icmp ne ptr %78, %79
  br i1 %80, label %81, label %100

81:                                               ; preds = %77
  %82 = load ptr, ptr %6, align 8
  %83 = getelementptr inbounds nuw i8, ptr %82, i32 1
  store ptr %83, ptr %6, align 8
  %84 = load ptr, ptr %6, align 8
  %85 = load i8, ptr %84, align 1
  %86 = sext i8 %85 to i32
  %87 = load ptr, ptr @_ZN10ODDLParser7GrammarL15CloseArrayTokenE, align 8
  %88 = getelementptr inbounds i8, ptr %87, i64 0
  %89 = load i8, ptr %88, align 1
  %90 = sext i8 %89 to i32
  %91 = icmp eq i32 %86, %90
  br i1 %91, label %92, label %99

92:                                               ; preds = %81
  %93 = load ptr, ptr %14, align 8
  %94 = call i32 @atoi(ptr noundef %93) #23
  %95 = sext i32 %94 to i64
  %96 = load ptr, ptr %9, align 8
  store i64 %95, ptr %96, align 8
  store i8 1, ptr %13, align 1
  %97 = load ptr, ptr %6, align 8
  %98 = getelementptr inbounds nuw i8, ptr %97, i32 1
  store ptr %98, ptr %6, align 8
  br label %100

99:                                               ; preds = %81
  br label %77, !llvm.loop !15

100:                                              ; preds = %92, %77
  call void @llvm.lifetime.end.p0(i64 8, ptr %14) #3
  br label %103

101:                                              ; preds = %64
  %102 = load ptr, ptr %9, align 8
  store i64 1, ptr %102, align 8
  br label %103

103:                                              ; preds = %101, %100
  %104 = load i8, ptr %13, align 1, !range !10, !noundef !11
  %105 = trunc i8 %104 to i1
  br i1 %105, label %108, label %106

106:                                              ; preds = %103
  %107 = load ptr, ptr %8, align 8
  store i32 -1, ptr %107, align 4
  br label %108

108:                                              ; preds = %106, %103
  %109 = load ptr, ptr %6, align 8
  store ptr %109, ptr %5, align 8
  store i32 1, ptr %12, align 4
  call void @llvm.lifetime.end.p0(i64 1, ptr %13) #3
  br label %110

110:                                              ; preds = %108, %55
  call void @llvm.lifetime.end.p0(i64 8, ptr %10) #3
  br label %111

111:                                              ; preds = %110, %23
  %112 = load ptr, ptr %5, align 8
  ret ptr %112
}