; Function Attrs: mustprogress nofree nounwind uwtable
define hidden noundef ptr @_ZN10ODDLParser13OpenDDLParser22parsePrimitiveDataTypeEPcS1_RNS_5Value9ValueTypeERm(ptr noundef %0, ptr noundef %1, ptr noundef nonnull align 4 captures(none) dereferenceable(4) initializes((0, 4)) %2, ptr noundef nonnull writeonly align 8 captures(none) dereferenceable(8) initializes((0, 8)) %3) local_unnamed_addr #10 align 2 {
  %5 = ptrtoint ptr %0 to i64
  %6 = ptrtoint ptr %1 to i64
  store i32 -1, ptr %2, align 4
  store i64 0, ptr %3, align 8
  %7 = icmp eq ptr %0, null
  %8 = icmp eq ptr %0, %1
  %or.cond = or i1 %7, %8
  br i1 %or.cond, label %_ZN10ODDLParser16lookForNextTokenIcEEPT_S2_S2_.exit, label %.preheader

.preheader:                                       ; preds = %4, %15
  %.03651 = phi i64 [ %16, %15 ], [ 0, %4 ]
  %9 = getelementptr inbounds nuw [14 x ptr], ptr @_ZN10ODDLParser7GrammarL18PrimitiveTypeTokenE, i64 0, i64 %.03651
  %10 = load ptr, ptr %9, align 8
  %11 = tail call i64 @strlen(ptr noundef nonnull dereferenceable(1) %10) #34
  %12 = tail call i32 @strncmp(ptr noundef nonnull %0, ptr noundef nonnull %10, i64 noundef %11) #34
  %13 = icmp eq i32 %12, 0
  br i1 %13, label %.thread, label %15

.thread:                                          ; preds = %.preheader
  %14 = trunc nuw nsw i64 %.03651 to i32
  store i32 %14, ptr %2, align 4
  br label %22

15:                                               ; preds = %.preheader
  %16 = add nuw nsw i64 %.03651, 1
  %exitcond.not = icmp eq i64 %16, 14
  br i1 %exitcond.not, label %17, label %.preheader, !llvm.loop !26

17:                                               ; preds = %15
  %.pr = load i32, ptr %2, align 4
  %18 = icmp eq i32 %.pr, -1
  br i1 %18, label %.lr.ph.preheader.i, label %22

.lr.ph.preheader.i:                               ; preds = %17
  %19 = sub i64 %6, %5
  %scevgep.i = getelementptr i8, ptr %0, i64 %19
  br label %.lr.ph.i

.lr.ph.i:                                         ; preds = %.critedge2.i, %.lr.ph.preheader.i
  %.010.i = phi ptr [ %21, %.critedge2.i ], [ %0, %.lr.ph.preheader.i ]
  %20 = load i8, ptr %.010.i, align 1
  switch i8 %20, label %_ZN10ODDLParser16lookForNextTokenIcEEPT_S2_S2_.exit [
    i8 32, label %.critedge2.i
    i8 9, label %.critedge2.i
    i8 13, label %.critedge2.i
    i8 10, label %.critedge2.i
    i8 44, label %.critedge2.i
  ]

.critedge2.i:                                     ; preds = %.lr.ph.i, %.lr.ph.i, %.lr.ph.i, %.lr.ph.i, %.lr.ph.i
  %21 = getelementptr inbounds nuw i8, ptr %.010.i, i64 1
  %.not.i = icmp eq ptr %21, %1
  br i1 %.not.i, label %_ZN10ODDLParser16lookForNextTokenIcEEPT_S2_S2_.exit, label %.lr.ph.i, !llvm.loop !8

22:                                               ; preds = %.thread, %17
  %23 = getelementptr inbounds nuw i8, ptr %0, i64 %11
  %24 = load i8, ptr %23, align 1
  %25 = icmp eq i8 %24, 91
  br i1 %25, label %26, label %38

26:                                               ; preds = %22
  %27 = getelementptr inbounds nuw i8, ptr %23, i64 1
  %28 = sub i64 %6, %5
  %scevgep = getelementptr i8, ptr %0, i64 %28
  br label %29

29:                                               ; preds = %30, %26
  %.039 = phi ptr [ %27, %26 ], [ %31, %30 ]
  %.not.not = icmp eq ptr %.039, %1
  br i1 %.not.not, label %39, label %30

30:                                               ; preds = %29
  %31 = getelementptr inbounds nuw i8, ptr %.039, i64 1
  %32 = load i8, ptr %31, align 1
  %33 = icmp eq i8 %32, 93
  br i1 %33, label %34, label %29, !llvm.loop !27

34:                                               ; preds = %30
  %35 = tail call i64 @strtol(ptr noundef nonnull captures(none) %27, ptr noundef null, i32 noundef 10) #29
  %sext = shl i64 %35, 32
  %36 = ashr exact i64 %sext, 32
  store i64 %36, ptr %3, align 8
  %37 = getelementptr inbounds nuw i8, ptr %.039, i64 2
  br label %_ZN10ODDLParser16lookForNextTokenIcEEPT_S2_S2_.exit

38:                                               ; preds = %22
  store i64 1, ptr %3, align 8
  br label %_ZN10ODDLParser16lookForNextTokenIcEEPT_S2_S2_.exit

39:                                               ; preds = %29
  store i32 -1, ptr %2, align 4
  br label %_ZN10ODDLParser16lookForNextTokenIcEEPT_S2_S2_.exit

_ZN10ODDLParser16lookForNextTokenIcEEPT_S2_S2_.exit: ; preds = %.critedge2.i, %.lr.ph.i, %34, %38, %39, %4
  %.0 = phi ptr [ %0, %4 ], [ %scevgep, %39 ], [ %37, %34 ], [ %23, %38 ], [ %scevgep.i, %.critedge2.i ], [ %.010.i, %.lr.ph.i ]
  ret ptr %.0
}